#include <math.h>
#include <stdio.h>
#include <stdlib.h>
#include <string.h>
#define LEN 100
#define ASCII 100
#define MAX_N 100
#define MAX_N 100
#define L 100
#define MAX 100
#define ASC 100
#define null 0
#define Len 100
#define M 100
#define SUM 100
#define NUMBER 100
#define SIZE 100
#define N 100
#define Max 100
#define X 100
#define Y 100
#define A 100
#define MAXN 100
#define MAXSIZE 100

struct
{
	int a;
	char b[26];
}shu[1000];

int main()
{
	int s[27];
	int n,i,j,o,max,t=1,x;
	scanf("%d",&n);
	for (i=0;i<n;i++)
		scanf("%d %s",&shu[i].a,shu[i].b);

	for (i=1;i<=26;i++)
		s[i]=0;

	for (i=0;i<n;i++)
		for (j=0;j<strlen(shu[i].b);j++)
		{
			o=shu[i].b[j]-64;
			s[o]++;
		}


	max=0;
	for(i=1;i<=26;i++)
		if (max<s[i]) {max=s[i];t=i;}
	printf("%c\n",t+64);
	printf("%d\n",max);

	for (i=0;i<n;i++)
	{
		x=strlen(shu[i].b);
		for (j=0;j<x;j++)
			if (shu[i].b[j]==t+64)
				printf("%d\n",shu[i].a);
	}
	return 0;


	
}