; ModuleID = '2/1358.c'
source_filename = "2/1358.c"
target datalayout = "e-m:e-p270:32:32-p271:32:32-p272:64:64-i64:64-f80:128-n8:16:32:64-S128"
target triple = "x86_64-pc-linux-gnu"

%struct.anon = type { i32, [26 x i8] }

@.str = private unnamed_addr constant [3 x i8] c"%d\00", align 1
@.str.1 = private unnamed_addr constant [6 x i8] c"%d %s\00", align 1
@shu = common dso_local global [1000 x %struct.anon] zeroinitializer, align 16
@.str.2 = private unnamed_addr constant [4 x i8] c"%c\0A\00", align 1
@.str.3 = private unnamed_addr constant [4 x i8] c"%d\0A\00", align 1

; Function Attrs: noinline nounwind uwtable
define dso_local i32 @main() #0 {
  %1 = alloca i32, align 4
  %2 = alloca [27 x i32], align 16
  %3 = alloca i32, align 4
  %4 = alloca i32, align 4
  %5 = alloca i32, align 4
  %6 = alloca i32, align 4
  %7 = alloca i32, align 4
  %8 = alloca i32, align 4
  %9 = alloca i32, align 4
  store i32 0, i32* %1, align 4
  store i32 1, i32* %8, align 4
  %10 = call i32 (i8*, ...) @__isoc99_scanf(i8* getelementptr inbounds ([3 x i8], [3 x i8]* @.str, i64 0, i64 0), i32* %3)
  store i32 0, i32* %4, align 4
  br label %11

11:                                               ; preds = %26, %0
  %12 = load i32, i32* %4, align 4
  %13 = load i32, i32* %3, align 4
  %14 = icmp slt i32 %12, %13
  br i1 %14, label %15, label %29

15:                                               ; preds = %11
  %16 = load i32, i32* %4, align 4
  %17 = sext i32 %16 to i64
  %18 = getelementptr inbounds [1000 x %struct.anon], [1000 x %struct.anon]* @shu, i64 0, i64 %17
  %19 = getelementptr inbounds %struct.anon, %struct.anon* %18, i32 0, i32 0
  %20 = load i32, i32* %4, align 4
  %21 = sext i32 %20 to i64
  %22 = getelementptr inbounds [1000 x %struct.anon], [1000 x %struct.anon]* @shu, i64 0, i64 %21
  %23 = getelementptr inbounds %struct.anon, %struct.anon* %22, i32 0, i32 1
  %24 = getelementptr inbounds [26 x i8], [26 x i8]* %23, i64 0, i64 0
  %25 = call i32 (i8*, ...) @__isoc99_scanf(i8* getelementptr inbounds ([6 x i8], [6 x i8]* @.str.1, i64 0, i64 0), i32* %19, i8* %24)
  br label %26

26:                                               ; preds = %15
  %27 = load i32, i32* %4, align 4
  %28 = add nsw i32 %27, 1
  store i32 %28, i32* %4, align 4
  br label %11

29:                                               ; preds = %11
  store i32 1, i32* %4, align 4
  br label %30

30:                                               ; preds = %37, %29
  %31 = load i32, i32* %4, align 4
  %32 = icmp sle i32 %31, 26
  br i1 %32, label %33, label %40

33:                                               ; preds = %30
  %34 = load i32, i32* %4, align 4
  %35 = sext i32 %34 to i64
  %36 = getelementptr inbounds [27 x i32], [27 x i32]* %2, i64 0, i64 %35
  store i32 0, i32* %36, align 4
  br label %37

37:                                               ; preds = %33
  %38 = load i32, i32* %4, align 4
  %39 = add nsw i32 %38, 1
  store i32 %39, i32* %4, align 4
  br label %30

40:                                               ; preds = %30
  store i32 0, i32* %4, align 4
  br label %41

41:                                               ; preds = %76, %40
  %42 = load i32, i32* %4, align 4
  %43 = load i32, i32* %3, align 4
  %44 = icmp slt i32 %42, %43
  br i1 %44, label %45, label %79

45:                                               ; preds = %41
  store i32 0, i32* %5, align 4
  br label %46

46:                                               ; preds = %72, %45
  %47 = load i32, i32* %5, align 4
  %48 = sext i32 %47 to i64
  %49 = load i32, i32* %4, align 4
  %50 = sext i32 %49 to i64
  %51 = getelementptr inbounds [1000 x %struct.anon], [1000 x %struct.anon]* @shu, i64 0, i64 %50
  %52 = getelementptr inbounds %struct.anon, %struct.anon* %51, i32 0, i32 1
  %53 = getelementptr inbounds [26 x i8], [26 x i8]* %52, i64 0, i64 0
  %54 = call i64 @strlen(i8* %53) #3
  %55 = icmp ult i64 %48, %54
  br i1 %55, label %56, label %75

56:                                               ; preds = %46
  %57 = load i32, i32* %4, align 4
  %58 = sext i32 %57 to i64
  %59 = getelementptr inbounds [1000 x %struct.anon], [1000 x %struct.anon]* @shu, i64 0, i64 %58
  %60 = getelementptr inbounds %struct.anon, %struct.anon* %59, i32 0, i32 1
  %61 = load i32, i32* %5, align 4
  %62 = sext i32 %61 to i64
  %63 = getelementptr inbounds [26 x i8], [26 x i8]* %60, i64 0, i64 %62
  %64 = load i8, i8* %63, align 1
  %65 = sext i8 %64 to i32
  %66 = sub nsw i32 %65, 64
  store i32 %66, i32* %6, align 4
  %67 = load i32, i32* %6, align 4
  %68 = sext i32 %67 to i64
  %69 = getelementptr inbounds [27 x i32], [27 x i32]* %2, i64 0, i64 %68
  %70 = load i32, i32* %69, align 4
  %71 = add nsw i32 %70, 1
  store i32 %71, i32* %69, align 4
  br label %72

72:                                               ; preds = %56
  %73 = load i32, i32* %5, align 4
  %74 = add nsw i32 %73, 1
  store i32 %74, i32* %5, align 4
  br label %46

75:                                               ; preds = %46
  br label %76

76:                                               ; preds = %75
  %77 = load i32, i32* %4, align 4
  %78 = add nsw i32 %77, 1
  store i32 %78, i32* %4, align 4
  br label %41

79:                                               ; preds = %41
  store i32 0, i32* %7, align 4
  store i32 1, i32* %4, align 4
  br label %80

80:                                               ; preds = %97, %79
  %81 = load i32, i32* %4, align 4
  %82 = icmp sle i32 %81, 26
  br i1 %82, label %83, label %100

83:                                               ; preds = %80
  %84 = load i32, i32* %7, align 4
  %85 = load i32, i32* %4, align 4
  %86 = sext i32 %85 to i64
  %87 = getelementptr inbounds [27 x i32], [27 x i32]* %2, i64 0, i64 %86
  %88 = load i32, i32* %87, align 4
  %89 = icmp slt i32 %84, %88
  br i1 %89, label %90, label %96

90:                                               ; preds = %83
  %91 = load i32, i32* %4, align 4
  %92 = sext i32 %91 to i64
  %93 = getelementptr inbounds [27 x i32], [27 x i32]* %2, i64 0, i64 %92
  %94 = load i32, i32* %93, align 4
  store i32 %94, i32* %7, align 4
  %95 = load i32, i32* %4, align 4
  store i32 %95, i32* %8, align 4
  br label %96

96:                                               ; preds = %90, %83
  br label %97

97:                                               ; preds = %96
  %98 = load i32, i32* %4, align 4
  %99 = add nsw i32 %98, 1
  store i32 %99, i32* %4, align 4
  br label %80

100:                                              ; preds = %80
  %101 = load i32, i32* %8, align 4
  %102 = add nsw i32 %101, 64
  %103 = call i32 (i8*, ...) @printf(i8* getelementptr inbounds ([4 x i8], [4 x i8]* @.str.2, i64 0, i64 0), i32 %102)
  %104 = load i32, i32* %7, align 4
  %105 = call i32 (i8*, ...) @printf(i8* getelementptr inbounds ([4 x i8], [4 x i8]* @.str.3, i64 0, i64 0), i32 %104)
  store i32 0, i32* %4, align 4
  br label %106

106:                                              ; preds = %147, %100
  %107 = load i32, i32* %4, align 4
  %108 = load i32, i32* %3, align 4
  %109 = icmp slt i32 %107, %108
  br i1 %109, label %110, label %150

110:                                              ; preds = %106
  %111 = load i32, i32* %4, align 4
  %112 = sext i32 %111 to i64
  %113 = getelementptr inbounds [1000 x %struct.anon], [1000 x %struct.anon]* @shu, i64 0, i64 %112
  %114 = getelementptr inbounds %struct.anon, %struct.anon* %113, i32 0, i32 1
  %115 = getelementptr inbounds [26 x i8], [26 x i8]* %114, i64 0, i64 0
  %116 = call i64 @strlen(i8* %115) #3
  %117 = trunc i64 %116 to i32
  store i32 %117, i32* %9, align 4
  store i32 0, i32* %5, align 4
  br label %118

118:                                              ; preds = %143, %110
  %119 = load i32, i32* %5, align 4
  %120 = load i32, i32* %9, align 4
  %121 = icmp slt i32 %119, %120
  br i1 %121, label %122, label %146

122:                                              ; preds = %118
  %123 = load i32, i32* %4, align 4
  %124 = sext i32 %123 to i64
  %125 = getelementptr inbounds [1000 x %struct.anon], [1000 x %struct.anon]* @shu, i64 0, i64 %124
  %126 = getelementptr inbounds %struct.anon, %struct.anon* %125, i32 0, i32 1
  %127 = load i32, i32* %5, align 4
  %128 = sext i32 %127 to i64
  %129 = getelementptr inbounds [26 x i8], [26 x i8]* %126, i64 0, i64 %128
  %130 = load i8, i8* %129, align 1
  %131 = sext i8 %130 to i32
  %132 = load i32, i32* %8, align 4
  %133 = add nsw i32 %132, 64
  %134 = icmp eq i32 %131, %133
  br i1 %134, label %135, label %142

135:                                              ; preds = %122
  %136 = load i32, i32* %4, align 4
  %137 = sext i32 %136 to i64
  %138 = getelementptr inbounds [1000 x %struct.anon], [1000 x %struct.anon]* @shu, i64 0, i64 %137
  %139 = getelementptr inbounds %struct.anon, %struct.anon* %138, i32 0, i32 0
  %140 = load i32, i32* %139, align 16
  %141 = call i32 (i8*, ...) @printf(i8* getelementptr inbounds ([4 x i8], [4 x i8]* @.str.3, i64 0, i64 0), i32 %140)
  br label %142

142:                                              ; preds = %135, %122
  br label %143

143:                                              ; preds = %142
  %144 = load i32, i32* %5, align 4
  %145 = add nsw i32 %144, 1
  store i32 %145, i32* %5, align 4
  br label %118

146:                                              ; preds = %118
  br label %147

147:                                              ; preds = %146
  %148 = load i32, i32* %4, align 4
  %149 = add nsw i32 %148, 1
  store i32 %149, i32* %4, align 4
  br label %106

150:                                              ; preds = %106
  ret i32 0
}

declare dso_local i32 @__isoc99_scanf(i8*, ...) #1

; Function Attrs: nounwind readonly
declare dso_local i64 @strlen(i8*) #2

declare dso_local i32 @printf(i8*, ...) #1


!llvm.module.flags = !{!0}
!llvm.ident = !{!1}

!0 = !{i32 1, !"wchar_size", i32 4}
!1 = !{!"clang version 10.0.0-4ubuntu1 "}
